; Function Attrs: mustprogress uwtable
define void @_ZN9grpc_core28ResourceQuotaFromChannelArgsEPK17grpc_channel_args(ptr noalias nocapture writeonly sret(%"class.grpc_core::RefCountedPtr") align 8 %agg.result, ptr noundef %args) local_unnamed_addr #3 {
entry:
  %call.i = tail call noundef ptr @_Z22grpc_channel_args_findPK17grpc_channel_argsPKc(ptr noundef %args, ptr noundef nonnull @.str)
  %cmp.i = icmp eq ptr %call.i, null
  br i1 %cmp.i, label %_Z30grpc_channel_args_find_pointerIN9grpc_core13ResourceQuotaEEPT_PK17grpc_channel_argsPKc.exit, label %lor.lhs.false.i

lor.lhs.false.i:                                  ; preds = %entry
  %0 = load i32, ptr %call.i, align 8
  %cmp1.not.i = icmp eq i32 %0, 2
  br i1 %cmp1.not.i, label %if.end.i, label %_Z30grpc_channel_args_find_pointerIN9grpc_core13ResourceQuotaEEPT_PK17grpc_channel_argsPKc.exit

if.end.i:                                         ; preds = %lor.lhs.false.i
  %value.i = getelementptr inbounds i8, ptr %call.i, i64 16
  %1 = load ptr, ptr %value.i, align 8
  br label %_Z30grpc_channel_args_find_pointerIN9grpc_core13ResourceQuotaEEPT_PK17grpc_channel_argsPKc.exit

_Z30grpc_channel_args_find_pointerIN9grpc_core13ResourceQuotaEEPT_PK17grpc_channel_argsPKc.exit: ; preds = %entry, %lor.lhs.false.i, %if.end.i
  %retval.0.i = phi ptr [ %1, %if.end.i ], [ null, %lor.lhs.false.i ], [ null, %entry ]
  tail call void @llvm.experimental.noalias.scope.decl(metadata !4)
  %refs_.i.i = getelementptr inbounds i8, ptr %retval.0.i, i64 8
  %2 = atomicrmw add ptr %refs_.i.i, i64 1 monotonic, align 8, !noalias !4
  store ptr %retval.0.i, ptr %agg.result, align 8, !alias.scope !4
  ret void
}